target datalayout = "e-m:e-p270:32:32-p271:32:32-p272:64:64-i64:64-i128:128-f80:128-n8:16:32:64-S128"
target triple = "x86_64-pc-linux-gnu"

; Function Attrs: mustprogress nounwind uwtable
define internal noundef i32 @_ZN6duckdbL21seqindex_decode_entryEPPKt(ptr noundef %0) #0 {
  %2 = alloca ptr, align 8
  %3 = alloca i32, align 4
  store ptr %0, ptr %2, align 8, !tbaa !48
  call void @llvm.lifetime.start.p0(i64 4, ptr %3) #6
  %4 = load ptr, ptr %2, align 8, !tbaa !48
  %5 = load ptr, ptr %4, align 8, !tbaa !25
  %6 = load i16, ptr %5, align 2, !tbaa !15
  %7 = zext i16 %6 to i32
  store i32 %7, ptr %3, align 4, !tbaa !12
  %8 = load i32, ptr %3, align 4, !tbaa !12
  %9 = and i32 %8, 63488
  %10 = icmp eq i32 %9, 55296
  br i1 %10, label %11, label %27

11:                                               ; preds = %1
  %12 = load ptr, ptr %2, align 8, !tbaa !48
  %13 = load ptr, ptr %12, align 8, !tbaa !25
  %14 = getelementptr inbounds i16, ptr %13, i64 1
  %15 = load ptr, ptr %2, align 8, !tbaa !48
  store ptr %14, ptr %15, align 8, !tbaa !25
  %16 = load i32, ptr %3, align 4, !tbaa !12
  %17 = and i32 %16, 1023
  %18 = shl i32 %17, 10
  %19 = load ptr, ptr %2, align 8, !tbaa !48
  %20 = load ptr, ptr %19, align 8, !tbaa !25
  %21 = load i16, ptr %20, align 2, !tbaa !15
  %22 = zext i16 %21 to i32
  %23 = and i32 %22, 1023
  %24 = or i32 %18, %23
  store i32 %24, ptr %3, align 4, !tbaa !12
  %25 = load i32, ptr %3, align 4, !tbaa !12
  %26 = add nsw i32 %25, 65536
  store i32 %26, ptr %3, align 4, !tbaa !12
  br label %27

27:                                               ; preds = %11, %1
  %28 = load i32, ptr %3, align 4, !tbaa !12
  call void @llvm.lifetime.end.p0(i64 4, ptr %3) #6
  ret i32 %28
}

; Function Attrs: mustprogress uwtable
define internal noundef i64 @_ZN6duckdbL30seqindex_write_char_decomposedEtPilNS_17utf8proc_option_tES0_(i16 noundef zeroext %0, ptr noundef %1, i64 noundef %2, i32 noundef %3, ptr noundef %4) #2 {
  %6 = alloca i64, align 8
  %7 = alloca i16, align 2
  %8 = alloca ptr, align 8
  %9 = alloca i64, align 8
  %10 = alloca i32, align 4
  %11 = alloca ptr, align 8
  %12 = alloca i64, align 8
  %13 = alloca ptr, align 8
  %14 = alloca i32, align 4
  %15 = alloca i32, align 4
  %16 = alloca i32, align 4
  store i16 %0, ptr %7, align 2, !tbaa !15
  store ptr %1, ptr %8, align 8, !tbaa !10
  store i64 %2, ptr %9, align 8, !tbaa !3
  store i32 %3, ptr %10, align 4, !tbaa !30
  store ptr %4, ptr %11, align 8, !tbaa !10
  call void @llvm.lifetime.start.p0(i64 8, ptr %12) #6
  store i64 0, ptr %12, align 8, !tbaa !3
  call void @llvm.lifetime.start.p0(i64 8, ptr %13) #6
  %17 = load i16, ptr %7, align 2, !tbaa !15
  %18 = zext i16 %17 to i32
  %19 = and i32 %18, 16383
  %20 = sext i32 %19 to i64
  %21 = getelementptr inbounds [12682 x i16], ptr @_ZN6duckdbL18utf8proc_sequencesE, i64 0, i64 %20
  store ptr %21, ptr %13, align 8, !tbaa !25
  call void @llvm.lifetime.start.p0(i64 4, ptr %14) #6
  %22 = load i16, ptr %7, align 2, !tbaa !15
  %23 = zext i16 %22 to i32
  %24 = ashr i32 %23, 14
  store i32 %24, ptr %14, align 4, !tbaa !12
  %25 = load i32, ptr %14, align 4, !tbaa !12
  %26 = icmp sge i32 %25, 3
  br i1 %26, label %27, label %33

27:                                               ; preds = %5
  %28 = load ptr, ptr %13, align 8, !tbaa !25
  %29 = load i16, ptr %28, align 2, !tbaa !15
  %30 = zext i16 %29 to i32
  store i32 %30, ptr %14, align 4, !tbaa !12
  %31 = load ptr, ptr %13, align 8, !tbaa !25
  %32 = getelementptr inbounds nuw i16, ptr %31, i32 1
  store ptr %32, ptr %13, align 8, !tbaa !25
  br label %33

33:                                               ; preds = %27, %5
  br label %34

34:                                               ; preds = %71, %33
  %35 = load i32, ptr %14, align 4, !tbaa !12
  %36 = icmp sge i32 %35, 0
  br i1 %36, label %37, label %76

37:                                               ; preds = %34
  call void @llvm.lifetime.start.p0(i64 4, ptr %15) #6
  %38 = call noundef i32 @_ZN6duckdbL21seqindex_decode_entryEPPKt(ptr noundef %13)
  store i32 %38, ptr %15, align 4, !tbaa !12
  %39 = load i32, ptr %15, align 4, !tbaa !12
  %40 = load ptr, ptr %8, align 8, !tbaa !10
  %41 = icmp ne ptr %40, null
  br i1 %41, label %42, label %46

42:                                               ; preds = %37
  %43 = load ptr, ptr %8, align 8, !tbaa !10
  %44 = load i64, ptr %12, align 8, !tbaa !3
  %45 = getelementptr inbounds i32, ptr %43, i64 %44
  br label %47

46:                                               ; preds = %37
  br label %47

47:                                               ; preds = %46, %42
  %48 = phi ptr [ %45, %42 ], [ null, %46 ]
  %49 = load i64, ptr %9, align 8, !tbaa !3
  %50 = load i64, ptr %12, align 8, !tbaa !3
  %51 = icmp sgt i64 %49, %50
  br i1 %51, label %52, label %56

52:                                               ; preds = %47
  %53 = load i64, ptr %9, align 8, !tbaa !3
  %54 = load i64, ptr %12, align 8, !tbaa !3
  %55 = sub nsw i64 %53, %54
  br label %57

56:                                               ; preds = %47
  br label %57

57:                                               ; preds = %56, %52
  %58 = phi i64 [ %55, %52 ], [ 0, %56 ]
  %59 = load i32, ptr %10, align 4, !tbaa !30
  %60 = load ptr, ptr %11, align 8, !tbaa !10
  %61 = call noundef i64 @_ZN6duckdb23utf8proc_decompose_charEiPilNS_17utf8proc_option_tES0_(i32 noundef %39, ptr noundef %48, i64 noundef %58, i32 noundef %59, ptr noundef %60)
  %62 = load i64, ptr %12, align 8, !tbaa !3
  %63 = add nsw i64 %62, %61
  store i64 %63, ptr %12, align 8, !tbaa !3
  %64 = load i64, ptr %12, align 8, !tbaa !3
  %65 = icmp slt i64 %64, 0
  br i1 %65, label %66, label %67

66:                                               ; preds = %57
  store i64 -2, ptr %6, align 8
  store i32 1, ptr %16, align 4
  br label %68

67:                                               ; preds = %57
  store i32 0, ptr %16, align 4
  br label %68

68:                                               ; preds = %67, %66
  call void @llvm.lifetime.end.p0(i64 4, ptr %15) #6
  %69 = load i32, ptr %16, align 4
  switch i32 %69, label %78 [
    i32 0, label %70
  ]

70:                                               ; preds = %68
  br label %71

71:                                               ; preds = %70
  %72 = load ptr, ptr %13, align 8, !tbaa !25
  %73 = getelementptr inbounds nuw i16, ptr %72, i32 1
  store ptr %73, ptr %13, align 8, !tbaa !25
  %74 = load i32, ptr %14, align 4, !tbaa !12
  %75 = add nsw i32 %74, -1
  store i32 %75, ptr %14, align 4, !tbaa !12
  br label %34, !llvm.loop !35

76:                                               ; preds = %34
  %77 = load i64, ptr %12, align 8, !tbaa !3
  store i64 %77, ptr %6, align 8
  store i32 1, ptr %16, align 4
  br label %78

78:                                               ; preds = %76, %68
  call void @llvm.lifetime.end.p0(i64 4, ptr %14) #6
  call void @llvm.lifetime.end.p0(i64 8, ptr %13) #6
  call void @llvm.lifetime.end.p0(i64 8, ptr %12) #6
  %79 = load i64, ptr %6, align 8
  ret i64 %79
}