; Function Attrs: mustprogress nofree nosync nounwind memory(readwrite, inaccessiblemem: none) uwtable
define internal fastcc noundef range(i64 -2, -9223372036854775808) i64 @_ZN6duckdbL30seqindex_write_char_decomposedEtPilNS_17utf8proc_option_tES0_(i16 noundef zeroext %0, ptr noundef captures(address_is_null) %1, i64 noundef %2, i32 noundef %3, ptr noundef captures(address_is_null) %4) unnamed_addr #4 {
  %6 = zext i16 %0 to i32
  %7 = and i32 %6, 16383
  %8 = zext nneg i32 %7 to i64
  %9 = getelementptr inbounds nuw [12682 x i16], ptr @_ZN6duckdbL18utf8proc_sequencesE, i64 0, i64 %8
  %10 = lshr i32 %6, 14
  %11 = icmp eq i32 %10, 3
  br i1 %11, label %12, label %16

12:                                               ; preds = %5
  %13 = load i16, ptr %9, align 2, !tbaa !8
  %14 = zext i16 %13 to i32
  %15 = getelementptr inbounds nuw i8, ptr %9, i64 2
  br label %16

16:                                               ; preds = %12, %5
  %.0 = phi ptr [ %15, %12 ], [ %9, %5 ]
  %.020 = phi i32 [ %14, %12 ], [ %10, %5 ]
  %.not = icmp eq ptr %1, null
  br i1 %.not, label %.split.us, label %.split

.split.us:                                        ; preds = %16, %36
  %.12128.us = phi i32 [ %38, %36 ], [ %.020, %16 ]
  %.02227.us = phi i64 [ %34, %36 ], [ 0, %16 ]
  %.126.us = phi ptr [ %37, %36 ], [ %.0, %16 ]
  %17 = load i16, ptr %.126.us, align 2, !tbaa !8
  %18 = zext i16 %17 to i32
  %19 = and i32 %18, 63488
  %20 = icmp eq i32 %19, 55296
  br i1 %20, label %21, label %_ZN6duckdbL21seqindex_decode_entryEPPKt.exit.us

21:                                               ; preds = %.split.us
  %22 = getelementptr inbounds nuw i8, ptr %.126.us, i64 2
  %23 = shl nuw nsw i32 %18, 10
  %24 = and i32 %23, 1047552
  %25 = load i16, ptr %22, align 2, !tbaa !8
  %26 = and i16 %25, 1023
  %27 = zext nneg i16 %26 to i32
  %28 = add nuw nsw i32 %24, 65536
  %29 = or disjoint i32 %28, %27
  br label %_ZN6duckdbL21seqindex_decode_entryEPPKt.exit.us

_ZN6duckdbL21seqindex_decode_entryEPPKt.exit.us:  ; preds = %21, %.split.us
  %.225.us = phi ptr [ %22, %21 ], [ %.126.us, %.split.us ]
  %.0.i.us = phi i32 [ %29, %21 ], [ %18, %.split.us ]
  %30 = icmp sgt i64 %2, %.02227.us
  %31 = sub nsw i64 %2, %.02227.us
  %32 = select i1 %30, i64 %31, i64 0
  %33 = tail call noundef i64 @_ZN6duckdb23utf8proc_decompose_charEiPilNS_17utf8proc_option_tES0_(i32 noundef %.0.i.us, ptr noundef null, i64 noundef %32, i32 noundef %3, ptr noundef %4)
  %34 = add nsw i64 %33, %.02227.us
  %35 = icmp sgt i64 %34, -1
  br i1 %35, label %36, label %.split30.us

36:                                               ; preds = %_ZN6duckdbL21seqindex_decode_entryEPPKt.exit.us
  %37 = getelementptr inbounds nuw i8, ptr %.225.us, i64 2
  %38 = add nsw i32 %.12128.us, -1
  %39 = icmp sgt i32 %.12128.us, 0
  br i1 %39, label %.split.us, label %.split30.us, !llvm.loop !18

.split:                                           ; preds = %16, %60
  %.12128 = phi i32 [ %62, %60 ], [ %.020, %16 ]
  %.02227 = phi i64 [ %58, %60 ], [ 0, %16 ]
  %.126 = phi ptr [ %61, %60 ], [ %.0, %16 ]
  %40 = load i16, ptr %.126, align 2, !tbaa !8
  %41 = zext i16 %40 to i32
  %42 = and i32 %41, 63488
  %43 = icmp eq i32 %42, 55296
  br i1 %43, label %44, label %_ZN6duckdbL21seqindex_decode_entryEPPKt.exit

44:                                               ; preds = %.split
  %45 = getelementptr inbounds nuw i8, ptr %.126, i64 2
  %46 = shl nuw nsw i32 %41, 10
  %47 = and i32 %46, 1047552
  %48 = load i16, ptr %45, align 2, !tbaa !8
  %49 = and i16 %48, 1023
  %50 = zext nneg i16 %49 to i32
  %51 = add nuw nsw i32 %47, 65536
  %52 = or disjoint i32 %51, %50
  br label %_ZN6duckdbL21seqindex_decode_entryEPPKt.exit

_ZN6duckdbL21seqindex_decode_entryEPPKt.exit:     ; preds = %.split, %44
  %.225 = phi ptr [ %45, %44 ], [ %.126, %.split ]
  %.0.i = phi i32 [ %52, %44 ], [ %41, %.split ]
  %53 = getelementptr inbounds i32, ptr %1, i64 %.02227
  %54 = icmp sgt i64 %2, %.02227
  %55 = sub nsw i64 %2, %.02227
  %56 = select i1 %54, i64 %55, i64 0
  %57 = tail call noundef i64 @_ZN6duckdb23utf8proc_decompose_charEiPilNS_17utf8proc_option_tES0_(i32 noundef %.0.i, ptr noundef nonnull %53, i64 noundef %56, i32 noundef %3, ptr noundef %4)
  %58 = add nsw i64 %57, %.02227
  %59 = icmp sgt i64 %58, -1
  br i1 %59, label %60, label %.split30.us

60:                                               ; preds = %_ZN6duckdbL21seqindex_decode_entryEPPKt.exit
  %61 = getelementptr inbounds nuw i8, ptr %.225, i64 2
  %62 = add nsw i32 %.12128, -1
  %63 = icmp sgt i32 %.12128, 0
  br i1 %63, label %.split, label %.split30.us, !llvm.loop !18

.split30.us:                                      ; preds = %_ZN6duckdbL21seqindex_decode_entryEPPKt.exit, %60, %36, %_ZN6duckdbL21seqindex_decode_entryEPPKt.exit.us
  %.us-phi = phi i64 [ -2, %_ZN6duckdbL21seqindex_decode_entryEPPKt.exit.us ], [ %34, %36 ], [ -2, %_ZN6duckdbL21seqindex_decode_entryEPPKt.exit ], [ %58, %60 ]
  ret i64 %.us-phi
}